target datalayout = "e-m:e-p270:32:32-p271:32:32-p272:64:64-i64:64-i128:128-f80:128-n8:16:32:64-S128"
target triple = "x86_64-pc-linux-gnu"

%"struct.ue2::(anonymous namespace)::full_check_report" = type { %"struct.ue2::(anonymous namespace)::check_report" }
%"struct.ue2::(anonymous namespace)::check_report" = type { ptr }

@_ZTVN3ue212_GLOBAL__N_112check_reportE = internal unnamed_addr constant { [5 x ptr] } { [5 x ptr] [ptr null, ptr @_ZTIN3ue212_GLOBAL__N_112check_reportE, ptr @_ZN3ue212_GLOBAL__N_112check_reportD2Ev, ptr @_ZN3ue212_GLOBAL__N_112check_reportD0Ev, ptr @__cxa_pure_virtual] }, align 8

; Function Attrs: inlinehint mustprogress nounwind uwtable
define internal void @_ZN3ue212_GLOBAL__N_112check_reportC2Ev(ptr noundef nonnull align 8 dereferenceable(8) %0) unnamed_addr #7 align 2 {
  %2 = alloca ptr, align 8
  store ptr %0, ptr %2, align 8
  %3 = load ptr, ptr %2, align 8
  store ptr getelementptr inbounds inrange(-16, 24) ({ [5 x ptr] }, ptr @_ZTVN3ue212_GLOBAL__N_112check_reportE, i32 0, i32 0, i32 2), ptr %3, align 8
  ret void
}

; Function Attrs: mustprogress nounwind uwtable
define internal void @_ZN3ue212_GLOBAL__N_112check_reportD2Ev(ptr noundef nonnull align 8 dereferenceable(8) %0) unnamed_addr #1 align 2 {
  %2 = alloca ptr, align 8
  store ptr %0, ptr %2, align 8
  ret void
}

; Function Attrs: inlinehint mustprogress nounwind uwtable
define internal void @_ZN3ue212_GLOBAL__N_117full_check_reportC2Ev(ptr noundef nonnull align 8 dereferenceable(8) %0) unnamed_addr #7 align 2 {
  %2 = alloca ptr, align 8
  store ptr %0, ptr %2, align 8
  %3 = load ptr, ptr %2, align 8
  call void @_ZN3ue212_GLOBAL__N_112check_reportC2Ev(ptr noundef nonnull align 8 dereferenceable(8) %3) #19
  store ptr getelementptr inbounds inrange(-16, 24) ({ [5 x ptr] }, ptr @_ZTVN3ue212_GLOBAL__N_117full_check_reportE, i32 0, i32 0, i32 2), ptr %3, align 8
  ret void
}

; Function Attrs: mustprogress uwtable
define hidden noundef zeroext i1 @_ZN3ue28is_equalERKNS_8NGHolderES2_(ptr noundef nonnull align 8 dereferenceable(136) %0, ptr noundef nonnull align 8 dereferenceable(136) %1) #3 personality ptr @__gxx_personality_v0 {
  %3 = alloca i1, align 1
  %4 = alloca ptr, align 8
  %5 = alloca ptr, align 8
  %6 = alloca %"struct.ue2::(anonymous namespace)::full_check_report", align 8
  %7 = alloca ptr, align 8
  %8 = alloca i32, align 4
  store ptr %0, ptr %4, align 8
  store ptr %1, ptr %5, align 8
  br label %9

9:                                                ; preds = %2
  br label %10

10:                                               ; preds = %9
  %11 = load ptr, ptr %4, align 8
  %12 = load ptr, ptr %5, align 8
  %13 = icmp eq ptr %11, %12
  br i1 %13, label %14, label %15

14:                                               ; preds = %10
  store i1 true, ptr %3, align 1
  br label %24

15:                                               ; preds = %10
  %16 = load ptr, ptr %4, align 8
  %17 = load ptr, ptr %5, align 8
  call void @llvm.lifetime.start.p0(i64 8, ptr %6) #19
  call void @llvm.memset.p0.i64(ptr align 8 %6, i8 0, i64 8, i1 false)
  call void @_ZN3ue212_GLOBAL__N_117full_check_reportC2Ev(ptr noundef nonnull align 8 dereferenceable(8) %6) #19
  %18 = invoke noundef zeroext i1 @_ZN3ue2L10is_equal_iERKNS_8NGHolderES2_RKNS_12_GLOBAL__N_112check_reportE(ptr noundef nonnull align 8 dereferenceable(136) %16, ptr noundef nonnull align 8 dereferenceable(136) %17, ptr noundef nonnull align 8 dereferenceable(8) %6)
          to label %19 unwind label %20

19:                                               ; preds = %15
  store i1 %18, ptr %3, align 1
  call void @_ZN3ue212_GLOBAL__N_112check_reportD2Ev(ptr noundef nonnull align 8 dereferenceable(8) %6) #19
  call void @llvm.lifetime.end.p0(i64 8, ptr %6) #19
  br label %24

20:                                               ; preds = %15
  %21 = landingpad { ptr, i32 }
          cleanup
  %22 = extractvalue { ptr, i32 } %21, 0
  store ptr %22, ptr %7, align 8
  %23 = extractvalue { ptr, i32 } %21, 1
  store i32 %23, ptr %8, align 4
  call void @_ZN3ue212_GLOBAL__N_112check_reportD2Ev(ptr noundef nonnull align 8 dereferenceable(8) %6) #19
  call void @llvm.lifetime.end.p0(i64 8, ptr %6) #19
  br label %26

24:                                               ; preds = %19, %14
  %25 = load i1, ptr %3, align 1
  ret i1 %25

26:                                               ; preds = %20
  %27 = load ptr, ptr %7, align 8
  %28 = load i32, ptr %8, align 4
  %29 = insertvalue { ptr, i32 } poison, ptr %27, 0
  %30 = insertvalue { ptr, i32 } %29, i32 %28, 1
  resume { ptr, i32 } %30
}