; Function Attrs: mustprogress uwtable
define hidden noundef zeroext i1 @_ZN3ue28is_equalERKNS_8NGHolderES2_(ptr noundef nonnull align 8 dereferenceable(136) %0, ptr noundef nonnull align 8 dereferenceable(136) %1) local_unnamed_addr #3 personality ptr @__gxx_personality_v0 {
  %3 = alloca %"struct.ue2::(anonymous namespace)::full_check_report", align 8
  %4 = icmp eq ptr %0, %1
  br i1 %4, label %7, label %5

5:                                                ; preds = %2
  call void @llvm.lifetime.start.p0(i64 8, ptr nonnull %3) #25
  store ptr getelementptr inbounds nuw inrange(-16, 24) (i8, ptr @_ZTVN3ue212_GLOBAL__N_117full_check_reportE, i64 16), ptr %3, align 8
  %6 = call fastcc noundef zeroext i1 @_ZN3ue2L10is_equal_iERKNS_8NGHolderES2_RKNS_12_GLOBAL__N_112check_reportE(ptr noundef nonnull align 8 dereferenceable(136) %0, ptr noundef nonnull align 8 dereferenceable(136) %1, ptr noundef nonnull align 8 dereferenceable(8) %3)
  call void @llvm.lifetime.end.p0(i64 8, ptr nonnull %3) #25
  br label %7

7:                                                ; preds = %2, %5
  %.0 = phi i1 [ %6, %5 ], [ true, %2 ]
  ret i1 %.0
}